target datalayout = "e-m:e-p270:32:32-p271:32:32-p272:64:64-i64:64-i128:128-f80:128-n8:16:32:64-S128"
target triple = "x86_64-pc-linux-gnu"

%struct.rowcol_s = type { i64, i64, i64, i64, i8, i8 }
%struct.wrapped_arg_s = type { i64, i64 }
%struct.wrowcol_s = type { %struct.rowcol_s, i64 }

@.str.291 = private unnamed_addr constant [43 x i8] c"str: found hardwrap: row: %zd, hrows: %zd\0A\00", align 1
@.str.292 = private unnamed_addr constant [43 x i8] c"str: found position: row: %zd, hrows: %zd\0A\00", align 1

; Function Attrs: nounwind uwtable
define internal zeroext i1 @str_get_current_wrapped_pos_iter(ptr noundef %0, i64 noundef %1, i64 noundef %2, i64 noundef %3, i64 noundef %4, i1 noundef zeroext %5, ptr noundef %6, ptr noundef %7) #0 {
  %9 = alloca ptr, align 8
  %10 = alloca i64, align 8
  %11 = alloca i64, align 8
  %12 = alloca i64, align 8
  %13 = alloca i64, align 8
  %14 = alloca i8, align 1
  %15 = alloca ptr, align 8
  %16 = alloca ptr, align 8
  %17 = alloca ptr, align 8
  %18 = alloca ptr, align 8
  %19 = alloca i64, align 8
  %20 = alloca i64, align 8
  %21 = alloca i64, align 8
  %22 = alloca i64, align 8
  %23 = alloca i8, align 1
  store ptr %0, ptr %9, align 8, !tbaa !11
  store i64 %1, ptr %10, align 8, !tbaa !9
  store i64 %2, ptr %11, align 8, !tbaa !9
  store i64 %3, ptr %12, align 8, !tbaa !9
  store i64 %4, ptr %13, align 8, !tbaa !9
  %24 = zext i1 %5 to i8
  store i8 %24, ptr %14, align 1, !tbaa !132
  store ptr %6, ptr %15, align 8, !tbaa !51
  store ptr %7, ptr %16, align 8, !tbaa !51
  call void @llvm.lifetime.start.p0(i64 8, ptr %17) #13
  %25 = load ptr, ptr %16, align 8, !tbaa !51
  store ptr %25, ptr %17, align 8, !tbaa !366
  call void @llvm.lifetime.start.p0(i64 8, ptr %18) #13
  %26 = load ptr, ptr %15, align 8, !tbaa !51
  store ptr %26, ptr %18, align 8, !tbaa !368
  call void @llvm.lifetime.start.p0(i64 8, ptr %19) #13
  %27 = load i64, ptr %13, align 8, !tbaa !9
  store i64 %27, ptr %19, align 8, !tbaa !9
  call void @llvm.lifetime.start.p0(i64 8, ptr %20) #13
  store i64 0, ptr %20, align 8, !tbaa !9
  br label %28

28:                                               ; preds = %134, %8
  %29 = load i64, ptr %20, align 8, !tbaa !9
  %30 = load i64, ptr %12, align 8, !tbaa !9
  %31 = icmp sle i64 %29, %30
  br i1 %31, label %32, label %141

32:                                               ; preds = %28
  call void @llvm.lifetime.start.p0(i64 8, ptr %21) #13
  call void @llvm.lifetime.start.p0(i64 8, ptr %22) #13
  call void @llvm.lifetime.start.p0(i64 1, ptr %23) #13
  %33 = load ptr, ptr %18, align 8, !tbaa !368
  %34 = getelementptr inbounds nuw %struct.wrapped_arg_s, ptr %33, i32 0, i32 0
  %35 = load i64, ptr %34, align 8, !tbaa !356
  %36 = load i64, ptr %11, align 8, !tbaa !9
  %37 = load i64, ptr %20, align 8, !tbaa !9
  %38 = add nsw i64 %36, %37
  %39 = icmp eq i64 %35, %38
  %40 = zext i1 %39 to i8
  store i8 %40, ptr %23, align 1, !tbaa !132
  %41 = load i64, ptr %20, align 8, !tbaa !9
  %42 = load i64, ptr %12, align 8, !tbaa !9
  %43 = icmp slt i64 %41, %42
  br i1 %43, label %44, label %51

44:                                               ; preds = %32
  %45 = load ptr, ptr %9, align 8, !tbaa !11
  %46 = load i64, ptr %11, align 8, !tbaa !9
  %47 = getelementptr inbounds i8, ptr %45, i64 %46
  %48 = load i64, ptr %12, align 8, !tbaa !9
  %49 = load i64, ptr %20, align 8, !tbaa !9
  %50 = call i64 @str_next_ofs(ptr noundef %47, i64 noundef %48, i64 noundef %49, ptr noundef %21)
  store i64 %50, ptr %22, align 8, !tbaa !9
  br label %62

51:                                               ; preds = %32
  %52 = load i8, ptr %14, align 1, !tbaa !132, !range !124, !noundef !125
  %53 = trunc i8 %52 to i1
  br i1 %53, label %54, label %55

54:                                               ; preds = %51
  br label %59

55:                                               ; preds = %51
  %56 = load i8, ptr %23, align 1, !tbaa !132, !range !124, !noundef !125
  %57 = trunc i8 %56 to i1
  %58 = select i1 %57, i32 1, i32 0
  br label %59

59:                                               ; preds = %55, %54
  %60 = phi i32 [ 2, %54 ], [ %58, %55 ]
  %61 = sext i32 %60 to i64
  store i64 %61, ptr %21, align 8, !tbaa !9
  store i64 1, ptr %22, align 8, !tbaa !9
  br label %62

62:                                               ; preds = %59, %44
  %63 = load i64, ptr %22, align 8, !tbaa !9
  %64 = icmp sgt i64 %63, 0
  br i1 %64, label %65, label %83

65:                                               ; preds = %62
  %66 = load i64, ptr %19, align 8, !tbaa !9
  %67 = load i64, ptr %21, align 8, !tbaa !9
  %68 = add nsw i64 %66, %67
  %69 = load ptr, ptr %18, align 8, !tbaa !368
  %70 = getelementptr inbounds nuw %struct.wrapped_arg_s, ptr %69, i32 0, i32 1
  %71 = load i64, ptr %70, align 8, !tbaa !358
  %72 = icmp sgt i64 %68, %71
  br i1 %72, label %73, label %82

73:                                               ; preds = %65
  store i64 0, ptr %19, align 8, !tbaa !9
  %74 = load ptr, ptr %17, align 8, !tbaa !366
  %75 = getelementptr inbounds nuw %struct.wrowcol_s, ptr %74, i32 0, i32 1
  %76 = load i64, ptr %75, align 8, !tbaa !364
  %77 = add nsw i64 %76, 1
  store i64 %77, ptr %75, align 8, !tbaa !364
  %78 = load i64, ptr %10, align 8, !tbaa !9
  %79 = load ptr, ptr %17, align 8, !tbaa !366
  %80 = getelementptr inbounds nuw %struct.wrowcol_s, ptr %79, i32 0, i32 1
  %81 = load i64, ptr %80, align 8, !tbaa !364
  call void (ptr, ...) @debug_msg(ptr noundef @.str.291, i64 noundef %78, i64 noundef %81)
  br label %82

82:                                               ; preds = %73, %65
  br label %86

83:                                               ; preds = %62
  %84 = load i64, ptr %22, align 8, !tbaa !9
  %85 = add nsw i64 %84, 1
  store i64 %85, ptr %22, align 8, !tbaa !9
  br label %86

86:                                               ; preds = %83, %82
  %87 = load i8, ptr %23, align 1, !tbaa !132, !range !124, !noundef !125
  %88 = trunc i8 %87 to i1
  br i1 %88, label %89, label %134

89:                                               ; preds = %86
  %90 = load i64, ptr %10, align 8, !tbaa !9
  %91 = load ptr, ptr %17, align 8, !tbaa !366
  %92 = getelementptr inbounds nuw %struct.wrowcol_s, ptr %91, i32 0, i32 1
  %93 = load i64, ptr %92, align 8, !tbaa !364
  call void (ptr, ...) @debug_msg(ptr noundef @.str.292, i64 noundef %90, i64 noundef %93)
  %94 = load i64, ptr %11, align 8, !tbaa !9
  %95 = load ptr, ptr %17, align 8, !tbaa !366
  %96 = getelementptr inbounds nuw %struct.wrowcol_s, ptr %95, i32 0, i32 0
  %97 = getelementptr inbounds nuw %struct.rowcol_s, ptr %96, i32 0, i32 2
  store i64 %94, ptr %97, align 8, !tbaa !370
  %98 = load i64, ptr %12, align 8, !tbaa !9
  %99 = load ptr, ptr %17, align 8, !tbaa !366
  %100 = getelementptr inbounds nuw %struct.wrowcol_s, ptr %99, i32 0, i32 0
  %101 = getelementptr inbounds nuw %struct.rowcol_s, ptr %100, i32 0, i32 3
  store i64 %98, ptr %101, align 8, !tbaa !371
  %102 = load ptr, ptr %17, align 8, !tbaa !366
  %103 = getelementptr inbounds nuw %struct.wrowcol_s, ptr %102, i32 0, i32 1
  %104 = load i64, ptr %103, align 8, !tbaa !364
  %105 = load i64, ptr %10, align 8, !tbaa !9
  %106 = add nsw i64 %104, %105
  %107 = load ptr, ptr %17, align 8, !tbaa !366
  %108 = getelementptr inbounds nuw %struct.wrowcol_s, ptr %107, i32 0, i32 0
  %109 = getelementptr inbounds nuw %struct.rowcol_s, ptr %108, i32 0, i32 0
  store i64 %106, ptr %109, align 8, !tbaa !359
  %110 = load i64, ptr %19, align 8, !tbaa !9
  %111 = load ptr, ptr %17, align 8, !tbaa !366
  %112 = getelementptr inbounds nuw %struct.wrowcol_s, ptr %111, i32 0, i32 0
  %113 = getelementptr inbounds nuw %struct.rowcol_s, ptr %112, i32 0, i32 1
  store i64 %110, ptr %113, align 8, !tbaa !361
  %114 = load i64, ptr %20, align 8, !tbaa !9
  %115 = icmp eq i64 %114, 0
  %116 = load ptr, ptr %17, align 8, !tbaa !366
  %117 = getelementptr inbounds nuw %struct.wrowcol_s, ptr %116, i32 0, i32 0
  %118 = getelementptr inbounds nuw %struct.rowcol_s, ptr %117, i32 0, i32 4
  %119 = zext i1 %115 to i8
  store i8 %119, ptr %118, align 8, !tbaa !362
  %120 = load i64, ptr %20, align 8, !tbaa !9
  %121 = load i64, ptr %22, align 8, !tbaa !9
  %122 = add nsw i64 %120, %121
  %123 = load i64, ptr %12, align 8, !tbaa !9
  %124 = load i8, ptr %14, align 1, !tbaa !132, !range !124, !noundef !125
  %125 = trunc i8 %124 to i1
  %126 = select i1 %125, i32 1, i32 0
  %127 = sext i32 %126 to i64
  %128 = sub nsw i64 %123, %127
  %129 = icmp sge i64 %122, %128
  %130 = load ptr, ptr %17, align 8, !tbaa !366
  %131 = getelementptr inbounds nuw %struct.wrowcol_s, ptr %130, i32 0, i32 0
  %132 = getelementptr inbounds nuw %struct.rowcol_s, ptr %131, i32 0, i32 5
  %133 = zext i1 %129 to i8
  store i8 %133, ptr %132, align 1, !tbaa !363
  br label %134

134:                                              ; preds = %89, %86
  %135 = load i64, ptr %21, align 8, !tbaa !9
  %136 = load i64, ptr %19, align 8, !tbaa !9
  %137 = add nsw i64 %136, %135
  store i64 %137, ptr %19, align 8, !tbaa !9
  %138 = load i64, ptr %22, align 8, !tbaa !9
  %139 = load i64, ptr %20, align 8, !tbaa !9
  %140 = add nsw i64 %139, %138
  store i64 %140, ptr %20, align 8, !tbaa !9
  call void @llvm.lifetime.end.p0(i64 1, ptr %23) #13
  call void @llvm.lifetime.end.p0(i64 8, ptr %22) #13
  call void @llvm.lifetime.end.p0(i64 8, ptr %21) #13
  br label %28, !llvm.loop !372

141:                                              ; preds = %28
  call void @llvm.lifetime.end.p0(i64 8, ptr %20) #13
  call void @llvm.lifetime.end.p0(i64 8, ptr %19) #13
  call void @llvm.lifetime.end.p0(i64 8, ptr %18) #13
  call void @llvm.lifetime.end.p0(i64 8, ptr %17) #13
  ret i1 false
}