; Function Attrs: nofree nounwind uwtable
define internal noundef zeroext i1 @str_get_current_wrapped_pos_iter(ptr noundef %0, i64 noundef %1, i64 noundef %2, i64 noundef %3, i64 noundef %4, i1 noundef zeroext %5, ptr noundef readonly captures(none) %6, ptr noundef captures(none) %7) #2 {
  %9 = alloca i64, align 8
  %.not50 = icmp slt i64 %3, 0
  br i1 %.not50, label %._crit_edge, label %.lr.ph

.lr.ph:                                           ; preds = %8
  %10 = getelementptr inbounds i8, ptr %0, i64 %2
  %11 = getelementptr inbounds nuw i8, ptr %6, i64 8
  %12 = getelementptr inbounds nuw i8, ptr %7, i64 40
  %13 = getelementptr inbounds nuw i8, ptr %7, i64 16
  %14 = getelementptr inbounds nuw i8, ptr %7, i64 24
  %15 = getelementptr inbounds nuw i8, ptr %7, i64 8
  %16 = getelementptr inbounds nuw i8, ptr %7, i64 32
  %.neg = sext i1 %5 to i64
  %17 = add nsw i64 %3, %.neg
  %18 = getelementptr inbounds nuw i8, ptr %7, i64 33
  br label %19

19:                                               ; preds = %.lr.ph, %49
  %.053 = phi i64 [ %4, %.lr.ph ], [ %51, %49 ]
  %.04651 = phi i64 [ 0, %.lr.ph ], [ %.pre-phi, %49 ]
  call void @llvm.lifetime.start.p0(i64 8, ptr nonnull %9) #32
  %20 = load i64, ptr %6, align 8, !tbaa !314
  %21 = add nsw i64 %.04651, %2
  %22 = icmp eq i64 %20, %21
  %23 = icmp slt i64 %.04651, %3
  br i1 %23, label %26, label %.thread

.thread:                                          ; preds = %19
  %24 = zext i1 %22 to i64
  %25 = select i1 %5, i64 2, i64 %24
  store i64 %25, ptr %9, align 8, !tbaa !57
  br label %29

26:                                               ; preds = %19
  %27 = call fastcc i64 @str_next_ofs(ptr noundef %10, i64 noundef %3, i64 noundef %.04651, ptr noundef nonnull %9)
  %28 = icmp sgt i64 %27, 0
  br i1 %28, label %._crit_edge54, label %37

._crit_edge54:                                    ; preds = %26
  %.pre = load i64, ptr %9, align 8, !tbaa !57
  br label %29

29:                                               ; preds = %._crit_edge54, %.thread
  %30 = phi i64 [ %25, %.thread ], [ %.pre, %._crit_edge54 ]
  %.04449 = phi i64 [ 1, %.thread ], [ %27, %._crit_edge54 ]
  %31 = add nsw i64 %30, %.053
  %32 = load i64, ptr %11, align 8, !tbaa !316
  %33 = icmp sgt i64 %31, %32
  br i1 %33, label %34, label %39

34:                                               ; preds = %29
  %35 = load i64, ptr %12, align 8, !tbaa !322
  %36 = add nsw i64 %35, 1
  store i64 %36, ptr %12, align 8, !tbaa !322
  call void (ptr, ...) @debug_msg(ptr noundef nonnull @.str.291, i64 noundef %1, i64 noundef %36)
  br label %39

37:                                               ; preds = %26
  %38 = add nsw i64 %27, 1
  br label %39

39:                                               ; preds = %29, %34, %37
  %.145 = phi i64 [ %.04449, %34 ], [ %.04449, %29 ], [ %38, %37 ]
  %.1 = phi i64 [ 0, %34 ], [ %.053, %29 ], [ %.053, %37 ]
  br i1 %22, label %40, label %._crit_edge55

._crit_edge55:                                    ; preds = %39
  %.pre56 = add nsw i64 %.145, %.04651
  br label %49

40:                                               ; preds = %39
  %41 = load i64, ptr %12, align 8, !tbaa !322
  call void (ptr, ...) @debug_msg(ptr noundef nonnull @.str.292, i64 noundef %1, i64 noundef %41)
  store i64 %2, ptr %13, align 8, !tbaa !350
  store i64 %3, ptr %14, align 8, !tbaa !351
  %42 = load i64, ptr %12, align 8, !tbaa !322
  %43 = add nsw i64 %42, %1
  store i64 %43, ptr %7, align 8, !tbaa !317
  store i64 %.1, ptr %15, align 8, !tbaa !319
  %44 = icmp eq i64 %.04651, 0
  %45 = zext i1 %44 to i8
  store i8 %45, ptr %16, align 8, !tbaa !320
  %46 = add nsw i64 %.145, %.04651
  %47 = icmp sge i64 %46, %17
  %48 = zext i1 %47 to i8
  store i8 %48, ptr %18, align 1, !tbaa !321
  br label %49

49:                                               ; preds = %._crit_edge55, %40
  %.pre-phi = phi i64 [ %.pre56, %._crit_edge55 ], [ %46, %40 ]
  %50 = load i64, ptr %9, align 8, !tbaa !57
  %51 = add nsw i64 %50, %.1
  call void @llvm.lifetime.end.p0(i64 8, ptr nonnull %9) #32
  %.not = icmp sgt i64 %.pre-phi, %3
  br i1 %.not, label %._crit_edge, label %19, !llvm.loop !352

._crit_edge:                                      ; preds = %49, %8
  ret i1 false
}